
exploit.o:	file format elf32-littlearm

Disassembly of section .text:

00000000 <aot_func#0>:
       0: b5b0         	push	{r4, r5, r7, lr}
       2: b082         	sub	sp, #0x8
       4: 460a         	mov	r2, r1
       6: 4603         	mov	r3, r0
       8: 2041         	movs	r0, #0x41
       a: 00c1         	lsls	r1, r0, #0x3
       c: 6898         	ldr	r0, [r3, #0x8]
       e: 5841         	ldr	r1, [r0, r1]
      10: 680c         	ldr	r4, [r1]
      12: ad01         	add	r5, sp, #0x4
      14: 6a19         	ldr	r1, [r3, #0x20]
      16: 42a5         	cmp	r5, r4
      18: d307         	blo	0x2a <aot_func#0+0x2a>  @ imm = #0xe
      1a: 1b2c         	subs	r4, r5, r4
      1c: 691b         	ldr	r3, [r3, #0x10]
      1e: 429c         	cmp	r4, r3
      20: d303         	blo	0x2a <aot_func#0+0x2a>  @ imm = #0x6
      22: f000 f808    	bl	0x36 <aot_func_internal#0> @ imm = #0x10
      26: b002         	add	sp, #0x8
      28: bdb0         	pop	{r4, r5, r7, pc}
      2a: 680a         	ldr	r2, [r1]
      2c: 210b         	movs	r1, #0xb
      2e: 4790         	blx	r2
      30: 2000         	movs	r0, #0x0
      32: b002         	add	sp, #0x8
      34: bdb0         	pop	{r4, r5, r7, pc}

00000036 <aot_func_internal#0>:
      36: b580         	push	{r7, lr}
      38: 684b         	ldr	r3, [r1, #0x4]
      3a: 189a         	adds	r2, r3, r2
      3c: d214         	bhs	0x68 <aot_func_internal#0+0x32> @ imm = #0x28
      3e: 2337         	movs	r3, #0x37
      40: 00db         	lsls	r3, r3, #0x3
      42: 58c3         	ldr	r3, [r0, r3]
      44: 429a         	cmp	r2, r3
      46: d80f         	bhi	0x68 <aot_func_internal#0+0x32> @ imm = #0x1e
      48: 212f         	movs	r1, #0x2f
      4a: 00c9         	lsls	r1, r1, #0x3
      4c: 1840         	adds	r0, r0, r1
      4e: 6800         	ldr	r0, [r0]
      50: 5c81         	ldrb	r1, [r0, r2]
      52: 1880         	adds	r0, r0, r2
      54: 7842         	ldrb	r2, [r0, #0x1]
      56: 0212         	lsls	r2, r2, #0x8
      58: 1851         	adds	r1, r2, r1
      5a: 7882         	ldrb	r2, [r0, #0x2]
      5c: 0412         	lsls	r2, r2, #0x10
      5e: 78c0         	ldrb	r0, [r0, #0x3]
      60: 0600         	lsls	r0, r0, #0x18
      62: 1880         	adds	r0, r0, r2
      64: 1840         	adds	r0, r0, r1
      66: bd80         	pop	{r7, pc}
      68: 680a         	ldr	r2, [r1]
      6a: 2102         	movs	r1, #0x2
      6c: 4790         	blx	r2
      6e: 2000         	movs	r0, #0x0
      70: bd80         	pop	{r7, pc}

00000072 <aot_func#1>:
      72: b580         	push	{r7, lr}
      74: b082         	sub	sp, #0x8
      76: 2141         	movs	r1, #0x41
      78: 00c9         	lsls	r1, r1, #0x3
      7a: 6882         	ldr	r2, [r0, #0x8]
      7c: 5851         	ldr	r1, [r2, r1]
      7e: 6849         	ldr	r1, [r1, #0x4]
      80: ab01         	add	r3, sp, #0x4
      82: 1a59         	subs	r1, r3, r1
      84: d306         	blo	0x94 <aot_func#1+0x22>  @ imm = #0xc
      86: 6903         	ldr	r3, [r0, #0x10]
      88: 4299         	cmp	r1, r3
      8a: d303         	blo	0x94 <aot_func#1+0x22>  @ imm = #0x6
      8c: f000 f80a    	bl	0xa4 <aot_func_internal#1> @ imm = #0x14
      90: b002         	add	sp, #0x8
      92: bd80         	pop	{r7, pc}
      94: 6a00         	ldr	r0, [r0, #0x20]
      96: 6803         	ldr	r3, [r0]
      98: 210b         	movs	r1, #0xb
      9a: 4610         	mov	r0, r2
      9c: 4798         	blx	r3
      9e: 2000         	movs	r0, #0x0
      a0: b002         	add	sp, #0x8
      a2: bd80         	pop	{r7, pc}

000000a4 <aot_func_internal#1>:
      a4: b5f0         	push	{r4, r5, r6, r7, lr}
      a6: b0a3         	sub	sp, #0x8c
      a8: 4606         	mov	r6, r0
      aa: 6880         	ldr	r0, [r0, #0x8]
      ac: 211d         	movs	r1, #0x1d
      ae: 010d         	lsls	r5, r1, #0x4
      b0: 5941         	ldr	r1, [r0, r5]
      b2: 6a32         	ldr	r2, [r6, #0x20]
      b4: 9222         	str	r2, [sp, #0x88]
      b6: 6892         	ldr	r2, [r2, #0x8]
      b8: 1a8c         	subs	r4, r1, r2
      ba: 69b3         	ldr	r3, [r6, #0x18]
      bc: 210d         	movs	r1, #0xd
      be: 429c         	cmp	r4, r3
      c0: d906         	bls	0xd0 <aot_func_internal#1+0x2c> @ imm = #0xc
      c2: 9021         	str	r0, [sp, #0x84]
      c4: 69f7         	ldr	r7, [r6, #0x1c]
      c6: 220e         	movs	r2, #0xe
      c8: 42bc         	cmp	r4, r7
      ca: d908         	bls	0xde <aot_func_internal#1+0x3a> @ imm = #0x10
      cc: 4611         	mov	r1, r2
      ce: 9821         	ldr	r0, [sp, #0x84]
      d0: 9e22         	ldr	r6, [sp, #0x88]
      d2: 6832         	ldr	r2, [r6]
      d4: 4790         	blx	r2
      d6: 2700         	movs	r7, #0x0
      d8: 4638         	mov	r0, r7
      da: b023         	add	sp, #0x8c
      dc: bdf0         	pop	{r4, r5, r6, r7, pc}
      de: 9715         	str	r7, [sp, #0x54]
      e0: 9318         	str	r3, [sp, #0x60]
      e2: 9216         	str	r2, [sp, #0x58]
      e4: 9119         	str	r1, [sp, #0x64]
      e6: 2135         	movs	r1, #0x35
      e8: 00c9         	lsls	r1, r1, #0x3
      ea: 4633         	mov	r3, r6
      ec: 9e21         	ldr	r6, [sp, #0x84]
      ee: 5870         	ldr	r0, [r6, r1]
      f0: 9014         	str	r0, [sp, #0x50]
      f2: 222f         	movs	r2, #0x2f
      f4: 00d2         	lsls	r2, r2, #0x3
      f6: 58b0         	ldr	r0, [r6, r2]
      f8: 901b         	str	r0, [sp, #0x6c]
      fa: 1972         	adds	r2, r6, r5
      fc: 1870         	adds	r0, r6, r1
      fe: 6900         	ldr	r0, [r0, #0x10]
     100: 901e         	str	r0, [sp, #0x78]
     102: 9320         	str	r3, [sp, #0x80]
     104: 68dd         	ldr	r5, [r3, #0xc]
     106: 6ab0         	ldr	r0, [r6, #0x28]
     108: 901f         	str	r0, [sp, #0x7c]
     10a: 6b30         	ldr	r0, [r6, #0x30]
     10c: 901c         	str	r0, [sp, #0x70]
     10e: 941d         	str	r4, [sp, #0x74]
     110: 9217         	str	r2, [sp, #0x5c]
     112: 6014         	str	r4, [r2]
     114: 9822         	ldr	r0, [sp, #0x88]
     116: 68c2         	ldr	r2, [r0, #0xc]
     118: 6904         	ldr	r4, [r0, #0x10]
     11a: 2700         	movs	r7, #0x0
     11c: 9700         	str	r7, [sp]
     11e: 9701         	str	r7, [sp, #0x4]
     120: 9502         	str	r5, [sp, #0x8]
     122: 2101         	movs	r1, #0x1
     124: 4630         	mov	r0, r6
     126: 463b         	mov	r3, r7
     128: 47a0         	blx	r4
     12a: 0600         	lsls	r0, r0, #0x18
     12c: d0d4         	beq	0xd8 <aot_func_internal#1+0x34> @ imm = #-0x58
     12e: 971a         	str	r7, [sp, #0x68]
     130: 4634         	mov	r4, r6
     132: 3468         	adds	r4, #0x68
     134: 981f         	ldr	r0, [sp, #0x7c]
     136: 6802         	ldr	r2, [r0]
     138: 6829         	ldr	r1, [r5]
     13a: 9820         	ldr	r0, [sp, #0x80]
     13c: 4790         	blx	r2
     13e: 7820         	ldrb	r0, [r4]
     140: 2800         	cmp	r0, #0x0
     142: d003         	beq	0x14c <aot_func_internal#1+0xa8> @ imm = #0x6
     144: 9f1a         	ldr	r7, [sp, #0x68]
     146: 4638         	mov	r0, r7
     148: b023         	add	sp, #0x8c
     14a: bdf0         	pop	{r4, r5, r6, r7, pc}
     14c: 950e         	str	r5, [sp, #0x38]
     14e: 9e22         	ldr	r6, [sp, #0x88]
     150: 69b2         	ldr	r2, [r6, #0x18]
     152: 9f1d         	ldr	r7, [sp, #0x74]
     154: 19d0         	adds	r0, r2, r7
     156: 2102         	movs	r1, #0x2
     158: 4290         	cmp	r0, r2
     15a: d200         	bhs	0x15e <aot_func_internal#1+0xba> @ imm = #0x0
     15c: e3e0         	b	0x920 <aot_func_internal#1+0x87c> @ imm = #0x7c0
     15e: 9a1e         	ldr	r2, [sp, #0x78]
     160: 4290         	cmp	r0, r2
     162: d900         	bls	0x166 <aot_func_internal#1+0xc2> @ imm = #0x0
     164: e3dc         	b	0x920 <aot_func_internal#1+0x87c> @ imm = #0x7b8
     166: 940c         	str	r4, [sp, #0x30]
     168: 4632         	mov	r2, r6
     16a: 3280         	adds	r2, #0x80
     16c: 920d         	str	r2, [sp, #0x34]
     16e: 6972         	ldr	r2, [r6, #0x14]
     170: 9c1b         	ldr	r4, [sp, #0x6c]
     172: 5422         	strb	r2, [r4, r0]
     174: 1820         	adds	r0, r4, r0
     176: 0e13         	lsrs	r3, r2, #0x18
     178: 70c3         	strb	r3, [r0, #0x3]
     17a: 0c13         	lsrs	r3, r2, #0x10
     17c: 7083         	strb	r3, [r0, #0x2]
     17e: 0a12         	lsrs	r2, r2, #0x8
     180: 7042         	strb	r2, [r0, #0x1]
     182: 19e0         	adds	r0, r4, r7
     184: 9013         	str	r0, [sp, #0x4c]
     186: 207f         	movs	r0, #0x7f
     188: 0080         	lsls	r0, r0, #0x2
     18a: 9a21         	ldr	r2, [sp, #0x84]
     18c: 1810         	adds	r0, r2, r0
     18e: 9010         	str	r0, [sp, #0x40]
     190: 207d         	movs	r0, #0x7d
     192: 0080         	lsls	r0, r0, #0x2
     194: 1810         	adds	r0, r2, r0
     196: 9012         	str	r0, [sp, #0x48]
     198: 204f         	movs	r0, #0x4f
     19a: 0100         	lsls	r0, r0, #0x4
     19c: 1820         	adds	r0, r4, r0
     19e: 9011         	str	r0, [sp, #0x44]
     1a0: 910f         	str	r1, [sp, #0x3c]
     1a2: 69b0         	ldr	r0, [r6, #0x18]
     1a4: 19c2         	adds	r2, r0, r7
     1a6: d300         	blo	0x1aa <aot_func_internal#1+0x106> @ imm = #0x0
     1a8: e3ba         	b	0x920 <aot_func_internal#1+0x87c> @ imm = #0x774
     1aa: 9b1e         	ldr	r3, [sp, #0x78]
     1ac: 429a         	cmp	r2, r3
     1ae: d900         	bls	0x1b2 <aot_func_internal#1+0x10e> @ imm = #0x0
     1b0: e3b6         	b	0x920 <aot_func_internal#1+0x87c> @ imm = #0x76c
     1b2: 5ca3         	ldrb	r3, [r4, r2]
     1b4: 18a2         	adds	r2, r4, r2
     1b6: 7857         	ldrb	r7, [r2, #0x1]
     1b8: 023f         	lsls	r7, r7, #0x8
     1ba: 18fb         	adds	r3, r7, r3
     1bc: 7897         	ldrb	r7, [r2, #0x2]
     1be: 043f         	lsls	r7, r7, #0x10
     1c0: 78d2         	ldrb	r2, [r2, #0x3]
     1c2: 0612         	lsls	r2, r2, #0x18
     1c4: 19d2         	adds	r2, r2, r7
     1c6: 18d2         	adds	r2, r2, r3
     1c8: 69f3         	ldr	r3, [r6, #0x1c]
     1ca: 429a         	cmp	r2, r3
     1cc: d900         	bls	0x1d0 <aot_func_internal#1+0x12c> @ imm = #0x0
     1ce: e1f2         	b	0x5b6 <aot_func_internal#1+0x512> @ imm = #0x3e4
     1d0: 9a11         	ldr	r2, [sp, #0x44]
     1d2: 6812         	ldr	r2, [r2]
     1d4: 9b12         	ldr	r3, [sp, #0x48]
     1d6: 681b         	ldr	r3, [r3]
     1d8: 2508         	movs	r5, #0x8
     1da: 429a         	cmp	r2, r3
     1dc: d300         	blo	0x1e0 <aot_func_internal#1+0x13c> @ imm = #0x0
     1de: e21a         	b	0x616 <aot_func_internal#1+0x572> @ imm = #0x434
     1e0: 950a         	str	r5, [sp, #0x28]
     1e2: 0093         	lsls	r3, r2, #0x2
     1e4: 9d10         	ldr	r5, [sp, #0x40]
     1e6: 58eb         	ldr	r3, [r5, r3]
     1e8: 2509         	movs	r5, #0x9
     1ea: 950b         	str	r5, [sp, #0x2c]
     1ec: 1c5f         	adds	r7, r3, #0x1
     1ee: d100         	bne	0x1f2 <aot_func_internal#1+0x14e> @ imm = #0x0
     1f0: e1df         	b	0x5b2 <aot_func_internal#1+0x50e> @ imm = #0x3be
     1f2: 009f         	lsls	r7, r3, #0x2
     1f4: 9d1c         	ldr	r5, [sp, #0x70]
     1f6: 59ed         	ldr	r5, [r5, r7]
     1f8: 2606         	movs	r6, #0x6
     1fa: 9609         	str	r6, [sp, #0x24]
     1fc: 2d00         	cmp	r5, #0x0
     1fe: d000         	beq	0x202 <aot_func_internal#1+0x15e> @ imm = #0x0
     200: e38c         	b	0x91c <aot_func_internal#1+0x878> @ imm = #0x718
     202: 9d13         	ldr	r5, [sp, #0x4c]
     204: 5c29         	ldrb	r1, [r5, r0]
     206: 1828         	adds	r0, r5, r0
     208: 7845         	ldrb	r5, [r0, #0x1]
     20a: 022d         	lsls	r5, r5, #0x8
     20c: 1869         	adds	r1, r5, r1
     20e: 7885         	ldrb	r5, [r0, #0x2]
     210: 042d         	lsls	r5, r5, #0x10
     212: 78c0         	ldrb	r0, [r0, #0x3]
     214: 0600         	lsls	r0, r0, #0x18
     216: 1940         	adds	r0, r0, r5
     218: 1840         	adds	r0, r0, r1
     21a: 9e22         	ldr	r6, [sp, #0x88]
     21c: 6a31         	ldr	r1, [r6, #0x20]
     21e: 1a09         	subs	r1, r1, r0
     220: 2b03         	cmp	r3, #0x3
     222: d818         	bhi	0x256 <aot_func_internal#1+0x1b2> @ imm = #0x30
     224: 6ab5         	ldr	r5, [r6, #0x28]
     226: 0e08         	lsrs	r0, r1, #0x18
     228: 9c0e         	ldr	r4, [sp, #0x38]
     22a: 70e0         	strb	r0, [r4, #0x3]
     22c: 0c08         	lsrs	r0, r1, #0x10
     22e: 70a0         	strb	r0, [r4, #0x2]
     230: 0a08         	lsrs	r0, r1, #0x8
     232: 7060         	strb	r0, [r4, #0x1]
     234: 460e         	mov	r6, r1
     236: 7021         	strb	r1, [r4]
     238: 9400         	str	r4, [sp]
     23a: 2700         	movs	r7, #0x0
     23c: 2301         	movs	r3, #0x1
     23e: 9820         	ldr	r0, [sp, #0x80]
     240: 4639         	mov	r1, r7
     242: 47a8         	blx	r5
     244: 0600         	lsls	r0, r0, #0x18
     246: d100         	bne	0x24a <aot_func_internal#1+0x1a6> @ imm = #0x0
     248: e746         	b	0xd8 <aot_func_internal#1+0x34> @ imm = #-0x174
     24a: 6820         	ldr	r0, [r4]
     24c: 9922         	ldr	r1, [sp, #0x88]
     24e: 9c1b         	ldr	r4, [sp, #0x6c]
     250: 4635         	mov	r5, r6
     252: 460e         	mov	r6, r1
     254: e009         	b	0x26a <aot_func_internal#1+0x1c6> @ imm = #0x12
     256: 981f         	ldr	r0, [sp, #0x7c]
     258: 59c2         	ldr	r2, [r0, r7]
     25a: 9820         	ldr	r0, [sp, #0x80]
     25c: 460d         	mov	r5, r1
     25e: 4790         	blx	r2
     260: 990c         	ldr	r1, [sp, #0x30]
     262: 7809         	ldrb	r1, [r1]
     264: 2900         	cmp	r1, #0x0
     266: d000         	beq	0x26a <aot_func_internal#1+0x1c6> @ imm = #0x0
     268: e76c         	b	0x144 <aot_func_internal#1+0xa0> @ imm = #-0x128
     26a: 2800         	cmp	r0, #0x0
     26c: 990f         	ldr	r1, [sp, #0x3c]
     26e: 9f1d         	ldr	r7, [sp, #0x74]
     270: d024         	beq	0x2bc <aot_func_internal#1+0x218> @ imm = #0x48
     272: 69b0         	ldr	r0, [r6, #0x18]
     274: 19c2         	adds	r2, r0, r7
     276: d300         	blo	0x27a <aot_func_internal#1+0x1d6> @ imm = #0x0
     278: e352         	b	0x920 <aot_func_internal#1+0x87c> @ imm = #0x6a4
     27a: 9b1e         	ldr	r3, [sp, #0x78]
     27c: 429a         	cmp	r2, r3
     27e: d900         	bls	0x282 <aot_func_internal#1+0x1de> @ imm = #0x0
     280: e34e         	b	0x920 <aot_func_internal#1+0x87c> @ imm = #0x69c
     282: 5ca3         	ldrb	r3, [r4, r2]
     284: 18a2         	adds	r2, r4, r2
     286: 7855         	ldrb	r5, [r2, #0x1]
     288: 022d         	lsls	r5, r5, #0x8
     28a: 18eb         	adds	r3, r5, r3
     28c: 7895         	ldrb	r5, [r2, #0x2]
     28e: 042d         	lsls	r5, r5, #0x10
     290: 78d2         	ldrb	r2, [r2, #0x3]
     292: 0612         	lsls	r2, r2, #0x18
     294: 1952         	adds	r2, r2, r5
     296: 9e22         	ldr	r6, [sp, #0x88]
     298: 18d2         	adds	r2, r2, r3
     29a: 9b0d         	ldr	r3, [sp, #0x34]
     29c: 685b         	ldr	r3, [r3, #0x4]
     29e: 18d2         	adds	r2, r2, r3
     2a0: 9d13         	ldr	r5, [sp, #0x4c]
     2a2: 542a         	strb	r2, [r5, r0]
     2a4: 0c13         	lsrs	r3, r2, #0x10
     2a6: 1828         	adds	r0, r5, r0
     2a8: 7083         	strb	r3, [r0, #0x2]
     2aa: 0e13         	lsrs	r3, r2, #0x18
     2ac: 70c3         	strb	r3, [r0, #0x3]
     2ae: 0a12         	lsrs	r2, r2, #0x8
     2b0: 7042         	strb	r2, [r0, #0x1]
     2b2: 69b0         	ldr	r0, [r6, #0x18]
     2b4: 19c2         	adds	r2, r0, r7
     2b6: d200         	bhs	0x2ba <aot_func_internal#1+0x216> @ imm = #0x0
     2b8: e777         	b	0x1aa <aot_func_internal#1+0x106> @ imm = #-0x112
     2ba: e331         	b	0x920 <aot_func_internal#1+0x87c> @ imm = #0x662
     2bc: 9811         	ldr	r0, [sp, #0x44]
     2be: 6802         	ldr	r2, [r0]
     2c0: 9812         	ldr	r0, [sp, #0x48]
     2c2: 6800         	ldr	r0, [r0]
     2c4: 4282         	cmp	r2, r0
     2c6: d300         	blo	0x2ca <aot_func_internal#1+0x226> @ imm = #0x0
     2c8: e1a9         	b	0x61e <aot_func_internal#1+0x57a> @ imm = #0x352
     2ca: 0090         	lsls	r0, r2, #0x2
     2cc: 9910         	ldr	r1, [sp, #0x40]
     2ce: 5808         	ldr	r0, [r1, r0]
     2d0: 1c41         	adds	r1, r0, #0x1
     2d2: d100         	bne	0x2d6 <aot_func_internal#1+0x232> @ imm = #0x0
     2d4: e16d         	b	0x5b2 <aot_func_internal#1+0x50e> @ imm = #0x2da
     2d6: 0083         	lsls	r3, r0, #0x2
     2d8: 991c         	ldr	r1, [sp, #0x70]
     2da: 58c9         	ldr	r1, [r1, r3]
     2dc: 2900         	cmp	r1, #0x0
     2de: d000         	beq	0x2e2 <aot_func_internal#1+0x23e> @ imm = #0x0
     2e0: e19b         	b	0x61a <aot_func_internal#1+0x576> @ imm = #0x336
     2e2: 6af1         	ldr	r1, [r6, #0x2c]
     2e4: 1869         	adds	r1, r5, r1
     2e6: 2803         	cmp	r0, #0x3
     2e8: d818         	bhi	0x31c <aot_func_internal#1+0x278> @ imm = #0x30
     2ea: 462c         	mov	r4, r5
     2ec: 4635         	mov	r5, r6
     2ee: 4626         	mov	r6, r4
     2f0: 6aad         	ldr	r5, [r5, #0x28]
     2f2: 0e08         	lsrs	r0, r1, #0x18
     2f4: 9c0e         	ldr	r4, [sp, #0x38]
     2f6: 70e0         	strb	r0, [r4, #0x3]
     2f8: 0c08         	lsrs	r0, r1, #0x10
     2fa: 70a0         	strb	r0, [r4, #0x2]
     2fc: 0a08         	lsrs	r0, r1, #0x8
     2fe: 7060         	strb	r0, [r4, #0x1]
     300: 7021         	strb	r1, [r4]
     302: 9400         	str	r4, [sp]
     304: 2700         	movs	r7, #0x0
     306: 2301         	movs	r3, #0x1
     308: 9820         	ldr	r0, [sp, #0x80]
     30a: 4639         	mov	r1, r7
     30c: 47a8         	blx	r5
     30e: 0600         	lsls	r0, r0, #0x18
     310: d100         	bne	0x314 <aot_func_internal#1+0x270> @ imm = #0x0
     312: e6e1         	b	0xd8 <aot_func_internal#1+0x34> @ imm = #-0x23e
     314: 6821         	ldr	r1, [r4]
     316: 9b22         	ldr	r3, [sp, #0x88]
     318: 9f1d         	ldr	r7, [sp, #0x74]
     31a: e00b         	b	0x334 <aot_func_internal#1+0x290> @ imm = #0x16
     31c: 981f         	ldr	r0, [sp, #0x7c]
     31e: 58c2         	ldr	r2, [r0, r3]
     320: 9820         	ldr	r0, [sp, #0x80]
     322: 4790         	blx	r2
     324: 4601         	mov	r1, r0
     326: 980c         	ldr	r0, [sp, #0x30]
     328: 7800         	ldrb	r0, [r0]
     32a: 2800         	cmp	r0, #0x0
     32c: d000         	beq	0x330 <aot_func_internal#1+0x28c> @ imm = #0x0
     32e: e709         	b	0x144 <aot_func_internal#1+0xa0> @ imm = #-0x1ee
     330: 4633         	mov	r3, r6
     332: 462e         	mov	r6, r5
     334: 9811         	ldr	r0, [sp, #0x44]
     336: 6802         	ldr	r2, [r0]
     338: 9812         	ldr	r0, [sp, #0x48]
     33a: 6800         	ldr	r0, [r0]
     33c: 4282         	cmp	r2, r0
     33e: d300         	blo	0x342 <aot_func_internal#1+0x29e> @ imm = #0x0
     340: e16f         	b	0x622 <aot_func_internal#1+0x57e> @ imm = #0x2de
     342: 460d         	mov	r5, r1
     344: 9608         	str	r6, [sp, #0x20]
     346: 0090         	lsls	r0, r2, #0x2
     348: 9910         	ldr	r1, [sp, #0x40]
     34a: 5808         	ldr	r0, [r1, r0]
     34c: 1c41         	adds	r1, r0, #0x1
     34e: 461e         	mov	r6, r3
     350: d100         	bne	0x354 <aot_func_internal#1+0x2b0> @ imm = #0x0
     352: e12e         	b	0x5b2 <aot_func_internal#1+0x50e> @ imm = #0x25c
     354: 0083         	lsls	r3, r0, #0x2
     356: 991c         	ldr	r1, [sp, #0x70]
     358: 58c9         	ldr	r1, [r1, r3]
     35a: 2900         	cmp	r1, #0x0
     35c: d000         	beq	0x360 <aot_func_internal#1+0x2bc> @ imm = #0x0
     35e: e15c         	b	0x61a <aot_func_internal#1+0x576> @ imm = #0x2b8
     360: 6b31         	ldr	r1, [r6, #0x30]
     362: 9c08         	ldr	r4, [sp, #0x20]
     364: 1861         	adds	r1, r4, r1
     366: 2803         	cmp	r0, #0x3
     368: 9507         	str	r5, [sp, #0x1c]
     36a: d817         	bhi	0x39c <aot_func_internal#1+0x2f8> @ imm = #0x2e
     36c: 6ab5         	ldr	r5, [r6, #0x28]
     36e: 0e08         	lsrs	r0, r1, #0x18
     370: 9c0e         	ldr	r4, [sp, #0x38]
     372: 70e0         	strb	r0, [r4, #0x3]
     374: 0c08         	lsrs	r0, r1, #0x10
     376: 70a0         	strb	r0, [r4, #0x2]
     378: 0a08         	lsrs	r0, r1, #0x8
     37a: 7060         	strb	r0, [r4, #0x1]
     37c: 7021         	strb	r1, [r4]
     37e: 9400         	str	r4, [sp]
     380: 2700         	movs	r7, #0x0
     382: 2301         	movs	r3, #0x1
     384: 9820         	ldr	r0, [sp, #0x80]
     386: 4639         	mov	r1, r7
     388: 47a8         	blx	r5
     38a: 0600         	lsls	r0, r0, #0x18
     38c: d100         	bne	0x390 <aot_func_internal#1+0x2ec> @ imm = #0x0
     38e: e6a3         	b	0xd8 <aot_func_internal#1+0x34> @ imm = #-0x2ba
     390: 6822         	ldr	r2, [r4]
     392: 9e22         	ldr	r6, [sp, #0x88]
     394: 9f1d         	ldr	r7, [sp, #0x74]
     396: 9c1b         	ldr	r4, [sp, #0x6c]
     398: 9d07         	ldr	r5, [sp, #0x1c]
     39a: e00a         	b	0x3b2 <aot_func_internal#1+0x30e> @ imm = #0x14
     39c: 981f         	ldr	r0, [sp, #0x7c]
     39e: 58c2         	ldr	r2, [r0, r3]
     3a0: 9820         	ldr	r0, [sp, #0x80]
     3a2: 4790         	blx	r2
     3a4: 4602         	mov	r2, r0
     3a6: 980c         	ldr	r0, [sp, #0x30]
     3a8: 7800         	ldrb	r0, [r0]
     3aa: 2800         	cmp	r0, #0x0
     3ac: d000         	beq	0x3b0 <aot_func_internal#1+0x30c> @ imm = #0x0
     3ae: e6c9         	b	0x144 <aot_func_internal#1+0xa0> @ imm = #-0x26e
     3b0: 9c1b         	ldr	r4, [sp, #0x6c]
     3b2: 6b70         	ldr	r0, [r6, #0x34]
     3b4: 6bb3         	ldr	r3, [r6, #0x38]
     3b6: 6bf1         	ldr	r1, [r6, #0x3c]
     3b8: 1a28         	subs	r0, r5, r0
     3ba: 4018         	ands	r0, r3
     3bc: 4288         	cmp	r0, r1
     3be: 990f         	ldr	r1, [sp, #0x3c]
     3c0: d200         	bhs	0x3c4 <aot_func_internal#1+0x320> @ imm = #0x0
     3c2: e756         	b	0x272 <aot_func_internal#1+0x1ce> @ imm = #-0x154
     3c4: 4013         	ands	r3, r2
     3c6: 6c30         	ldr	r0, [r6, #0x40]
     3c8: 4283         	cmp	r3, r0
     3ca: d200         	bhs	0x3ce <aot_func_internal#1+0x32a> @ imm = #0x0
     3cc: e751         	b	0x272 <aot_func_internal#1+0x1ce> @ imm = #-0x15e
     3ce: 6c70         	ldr	r0, [r6, #0x44]
     3d0: 4283         	cmp	r3, r0
     3d2: d900         	bls	0x3d6 <aot_func_internal#1+0x332> @ imm = #0x0
     3d4: e74d         	b	0x272 <aot_func_internal#1+0x1ce> @ imm = #-0x166
     3d6: 931a         	str	r3, [sp, #0x68]
     3d8: 19c0         	adds	r0, r0, r7
     3da: d300         	blo	0x3de <aot_func_internal#1+0x33a> @ imm = #0x0
     3dc: e2a0         	b	0x920 <aot_func_internal#1+0x87c> @ imm = #0x540
     3de: 4633         	mov	r3, r6
     3e0: 920d         	str	r2, [sp, #0x34]
     3e2: 9a1e         	ldr	r2, [sp, #0x78]
     3e4: 4290         	cmp	r0, r2
     3e6: d900         	bls	0x3ea <aot_func_internal#1+0x346> @ imm = #0x0
     3e8: e11c         	b	0x624 <aot_func_internal#1+0x580> @ imm = #0x238
     3ea: 9d08         	ldr	r5, [sp, #0x20]
     3ec: 5425         	strb	r5, [r4, r0]
     3ee: 1820         	adds	r0, r4, r0
     3f0: 0e29         	lsrs	r1, r5, #0x18
     3f2: 70c1         	strb	r1, [r0, #0x3]
     3f4: 0c29         	lsrs	r1, r5, #0x10
     3f6: 7081         	strb	r1, [r0, #0x2]
     3f8: 0a29         	lsrs	r1, r5, #0x8
     3fa: 7041         	strb	r1, [r0, #0x1]
     3fc: 6c9a         	ldr	r2, [r3, #0x48]
     3fe: 6cd8         	ldr	r0, [r3, #0x4c]
     400: 9013         	str	r0, [sp, #0x4c]
     402: 691c         	ldr	r4, [r3, #0x10]
     404: 2700         	movs	r7, #0x0
     406: 9700         	str	r7, [sp]
     408: 9701         	str	r7, [sp, #0x4]
     40a: 9d0e         	ldr	r5, [sp, #0x38]
     40c: 9502         	str	r5, [sp, #0x8]
     40e: 2101         	movs	r1, #0x1
     410: 9821         	ldr	r0, [sp, #0x84]
     412: 460e         	mov	r6, r1
     414: 463b         	mov	r3, r7
     416: 47a0         	blx	r4
     418: 0600         	lsls	r0, r0, #0x18
     41a: d100         	bne	0x41e <aot_func_internal#1+0x37a> @ imm = #0x0
     41c: e65c         	b	0xd8 <aot_func_internal#1+0x34> @ imm = #-0x348
     41e: 6828         	ldr	r0, [r5]
     420: 9006         	str	r0, [sp, #0x18]
     422: 9822         	ldr	r0, [sp, #0x88]
     424: 6904         	ldr	r4, [r0, #0x10]
     426: 2700         	movs	r7, #0x0
     428: 9600         	str	r6, [sp]
     42a: 9701         	str	r7, [sp, #0x4]
     42c: 9502         	str	r5, [sp, #0x8]
     42e: 981d         	ldr	r0, [sp, #0x74]
     430: 9913         	ldr	r1, [sp, #0x4c]
     432: 1a42         	subs	r2, r0, r1
     434: 9821         	ldr	r0, [sp, #0x84]
     436: 4639         	mov	r1, r7
     438: 463b         	mov	r3, r7
     43a: 47a0         	blx	r4
     43c: 0600         	lsls	r0, r0, #0x18
     43e: d100         	bne	0x442 <aot_func_internal#1+0x39e> @ imm = #0x0
     440: e64a         	b	0xd8 <aot_func_internal#1+0x34> @ imm = #-0x36c
     442: 981f         	ldr	r0, [sp, #0x7c]
     444: 6843         	ldr	r3, [r0, #0x4]
     446: 682a         	ldr	r2, [r5]
     448: 9820         	ldr	r0, [sp, #0x80]
     44a: 9906         	ldr	r1, [sp, #0x18]
     44c: 4798         	blx	r3
     44e: 980c         	ldr	r0, [sp, #0x30]
     450: 7800         	ldrb	r0, [r0]
     452: 2800         	cmp	r0, #0x0
     454: d000         	beq	0x458 <aot_func_internal#1+0x3b4> @ imm = #0x0
     456: e63f         	b	0xd8 <aot_func_internal#1+0x34> @ imm = #-0x382
     458: 9822         	ldr	r0, [sp, #0x88]
     45a: 6d00         	ldr	r0, [r0, #0x50]
     45c: 991d         	ldr	r1, [sp, #0x74]
     45e: 1840         	adds	r0, r0, r1
     460: d300         	blo	0x464 <aot_func_internal#1+0x3c0> @ imm = #0x0
     462: e260         	b	0x926 <aot_func_internal#1+0x882> @ imm = #0x4c0
     464: 991e         	ldr	r1, [sp, #0x78]
     466: 4288         	cmp	r0, r1
     468: d900         	bls	0x46c <aot_func_internal#1+0x3c8> @ imm = #0x0
     46a: e25c         	b	0x926 <aot_func_internal#1+0x882> @ imm = #0x4b8
     46c: 9b22         	ldr	r3, [sp, #0x88]
     46e: 6b99         	ldr	r1, [r3, #0x38]
     470: 9e07         	ldr	r6, [sp, #0x1c]
     472: 400e         	ands	r6, r1
     474: 991b         	ldr	r1, [sp, #0x6c]
     476: 540e         	strb	r6, [r1, r0]
     478: 1808         	adds	r0, r1, r0
     47a: 0e31         	lsrs	r1, r6, #0x18
     47c: 70c1         	strb	r1, [r0, #0x3]
     47e: 0c31         	lsrs	r1, r6, #0x10
     480: 7081         	strb	r1, [r0, #0x2]
     482: 9607         	str	r6, [sp, #0x1c]
     484: 0a31         	lsrs	r1, r6, #0x8
     486: 7041         	strb	r1, [r0, #0x1]
     488: 6d18         	ldr	r0, [r3, #0x50]
     48a: 9013         	str	r0, [sp, #0x4c]
     48c: 6d5a         	ldr	r2, [r3, #0x54]
     48e: 691d         	ldr	r5, [r3, #0x10]
     490: 2700         	movs	r7, #0x0
     492: 9700         	str	r7, [sp]
     494: 9701         	str	r7, [sp, #0x4]
     496: 9c0e         	ldr	r4, [sp, #0x38]
     498: 9402         	str	r4, [sp, #0x8]
     49a: 2101         	movs	r1, #0x1
     49c: 9821         	ldr	r0, [sp, #0x84]
     49e: 460e         	mov	r6, r1
     4a0: 463b         	mov	r3, r7
     4a2: 47a8         	blx	r5
     4a4: 0600         	lsls	r0, r0, #0x18
     4a6: d100         	bne	0x4aa <aot_func_internal#1+0x406> @ imm = #0x0
     4a8: e616         	b	0xd8 <aot_func_internal#1+0x34> @ imm = #-0x3d4
     4aa: 6820         	ldr	r0, [r4]
     4ac: 9006         	str	r0, [sp, #0x18]
     4ae: 9822         	ldr	r0, [sp, #0x88]
     4b0: 6905         	ldr	r5, [r0, #0x10]
     4b2: 2700         	movs	r7, #0x0
     4b4: 9600         	str	r6, [sp]
     4b6: 9701         	str	r7, [sp, #0x4]
     4b8: 9402         	str	r4, [sp, #0x8]
     4ba: 981d         	ldr	r0, [sp, #0x74]
     4bc: 9913         	ldr	r1, [sp, #0x4c]
     4be: 1842         	adds	r2, r0, r1
     4c0: 9821         	ldr	r0, [sp, #0x84]
     4c2: 4639         	mov	r1, r7
     4c4: 463b         	mov	r3, r7
     4c6: 47a8         	blx	r5
     4c8: 0600         	lsls	r0, r0, #0x18
     4ca: d100         	bne	0x4ce <aot_func_internal#1+0x42a> @ imm = #0x0
     4cc: e604         	b	0xd8 <aot_func_internal#1+0x34> @ imm = #-0x3f8
     4ce: 981f         	ldr	r0, [sp, #0x7c]
     4d0: 6843         	ldr	r3, [r0, #0x4]
     4d2: 980e         	ldr	r0, [sp, #0x38]
     4d4: 6802         	ldr	r2, [r0]
     4d6: 9820         	ldr	r0, [sp, #0x80]
     4d8: 9906         	ldr	r1, [sp, #0x18]
     4da: 4798         	blx	r3
     4dc: 980c         	ldr	r0, [sp, #0x30]
     4de: 7800         	ldrb	r0, [r0]
     4e0: 2800         	cmp	r0, #0x0
     4e2: d000         	beq	0x4e6 <aot_func_internal#1+0x442> @ imm = #0x0
     4e4: e5f8         	b	0xd8 <aot_func_internal#1+0x34> @ imm = #-0x410
     4e6: 9822         	ldr	r0, [sp, #0x88]
     4e8: 6d80         	ldr	r0, [r0, #0x58]
     4ea: 991d         	ldr	r1, [sp, #0x74]
     4ec: 1840         	adds	r0, r0, r1
     4ee: d300         	blo	0x4f2 <aot_func_internal#1+0x44e> @ imm = #0x0
     4f0: e219         	b	0x926 <aot_func_internal#1+0x882> @ imm = #0x432
     4f2: 991e         	ldr	r1, [sp, #0x78]
     4f4: 4288         	cmp	r0, r1
     4f6: d900         	bls	0x4fa <aot_func_internal#1+0x456> @ imm = #0x0
     4f8: e215         	b	0x926 <aot_func_internal#1+0x882> @ imm = #0x42a
     4fa: 991b         	ldr	r1, [sp, #0x6c]
     4fc: 9a1a         	ldr	r2, [sp, #0x68]
     4fe: 540a         	strb	r2, [r1, r0]
     500: 1808         	adds	r0, r1, r0
     502: 0e11         	lsrs	r1, r2, #0x18
     504: 70c1         	strb	r1, [r0, #0x3]
     506: 0c11         	lsrs	r1, r2, #0x10
     508: 7081         	strb	r1, [r0, #0x2]
     50a: 0a11         	lsrs	r1, r2, #0x8
     50c: 7041         	strb	r1, [r0, #0x1]
     50e: 9822         	ldr	r0, [sp, #0x88]
     510: 6d81         	ldr	r1, [r0, #0x58]
     512: 911a         	str	r1, [sp, #0x68]
     514: 6dc2         	ldr	r2, [r0, #0x5c]
     516: 6905         	ldr	r5, [r0, #0x10]
     518: 2700         	movs	r7, #0x0
     51a: 9700         	str	r7, [sp]
     51c: 9701         	str	r7, [sp, #0x4]
     51e: 9c0e         	ldr	r4, [sp, #0x38]
     520: 9402         	str	r4, [sp, #0x8]
     522: 2601         	movs	r6, #0x1
     524: 9821         	ldr	r0, [sp, #0x84]
     526: 4631         	mov	r1, r6
     528: 463b         	mov	r3, r7
     52a: 47a8         	blx	r5
     52c: 0600         	lsls	r0, r0, #0x18
     52e: d100         	bne	0x532 <aot_func_internal#1+0x48e> @ imm = #0x0
     530: e5d2         	b	0xd8 <aot_func_internal#1+0x34> @ imm = #-0x45c
     532: 6820         	ldr	r0, [r4]
     534: 9013         	str	r0, [sp, #0x4c]
     536: 9822         	ldr	r0, [sp, #0x88]
     538: 6905         	ldr	r5, [r0, #0x10]
     53a: 2700         	movs	r7, #0x0
     53c: 9600         	str	r6, [sp]
     53e: 9701         	str	r7, [sp, #0x4]
     540: 9402         	str	r4, [sp, #0x8]
     542: 981d         	ldr	r0, [sp, #0x74]
     544: 991a         	ldr	r1, [sp, #0x68]
     546: 1842         	adds	r2, r0, r1
     548: 9821         	ldr	r0, [sp, #0x84]
     54a: 4639         	mov	r1, r7
     54c: 463b         	mov	r3, r7
     54e: 47a8         	blx	r5
     550: 0600         	lsls	r0, r0, #0x18
     552: d100         	bne	0x556 <aot_func_internal#1+0x4b2> @ imm = #0x0
     554: e5c0         	b	0xd8 <aot_func_internal#1+0x34> @ imm = #-0x480
     556: 981f         	ldr	r0, [sp, #0x7c]
     558: 6843         	ldr	r3, [r0, #0x4]
     55a: 9c0e         	ldr	r4, [sp, #0x38]
     55c: 6822         	ldr	r2, [r4]
     55e: 9820         	ldr	r0, [sp, #0x80]
     560: 9913         	ldr	r1, [sp, #0x4c]
     562: 4798         	blx	r3
     564: 980c         	ldr	r0, [sp, #0x30]
     566: 7800         	ldrb	r0, [r0]
     568: 2800         	cmp	r0, #0x0
     56a: d000         	beq	0x56e <aot_func_internal#1+0x4ca> @ imm = #0x0
     56c: e5b4         	b	0xd8 <aot_func_internal#1+0x34> @ imm = #-0x498
     56e: 9822         	ldr	r0, [sp, #0x88]
     570: 6b41         	ldr	r1, [r0, #0x34]
     572: 911a         	str	r1, [sp, #0x68]
     574: 6847         	ldr	r7, [r0, #0x4]
     576: 6905         	ldr	r5, [r0, #0x10]
     578: 6e00         	ldr	r0, [r0, #0x60]
     57a: 2300         	movs	r3, #0x0
     57c: 9600         	str	r6, [sp]
     57e: 9301         	str	r3, [sp, #0x4]
     580: 9402         	str	r4, [sp, #0x8]
     582: 991d         	ldr	r1, [sp, #0x74]
     584: 180a         	adds	r2, r1, r0
     586: 9821         	ldr	r0, [sp, #0x84]
     588: 4619         	mov	r1, r3
     58a: 9306         	str	r3, [sp, #0x18]
     58c: 47a8         	blx	r5
     58e: 0600         	lsls	r0, r0, #0x18
     590: d00b         	beq	0x5aa <aot_func_internal#1+0x506> @ imm = #0x16
     592: 981f         	ldr	r0, [sp, #0x7c]
     594: 6885         	ldr	r5, [r0, #0x8]
     596: 980e         	ldr	r0, [sp, #0x38]
     598: 6801         	ldr	r1, [r0]
     59a: 9820         	ldr	r0, [sp, #0x80]
     59c: 463a         	mov	r2, r7
     59e: 9b1a         	ldr	r3, [sp, #0x68]
     5a0: 47a8         	blx	r5
     5a2: 980c         	ldr	r0, [sp, #0x30]
     5a4: 7800         	ldrb	r0, [r0]
     5a6: 2800         	cmp	r0, #0x0
     5a8: d03f         	beq	0x62a <aot_func_internal#1+0x586> @ imm = #0x7e
     5aa: 9f06         	ldr	r7, [sp, #0x18]
     5ac: 4638         	mov	r0, r7
     5ae: b023         	add	sp, #0x8c
     5b0: bdf0         	pop	{r4, r5, r6, r7, pc}
     5b2: 990b         	ldr	r1, [sp, #0x2c]
     5b4: e1b4         	b	0x920 <aot_func_internal#1+0x87c> @ imm = #0x368
     5b6: 6935         	ldr	r5, [r6, #0x10]
     5b8: 980d         	ldr	r0, [sp, #0x34]
     5ba: 6802         	ldr	r2, [r0]
     5bc: 2700         	movs	r7, #0x0
     5be: 9700         	str	r7, [sp]
     5c0: 9701         	str	r7, [sp, #0x4]
     5c2: 9c0e         	ldr	r4, [sp, #0x38]
     5c4: 9402         	str	r4, [sp, #0x8]
     5c6: 2101         	movs	r1, #0x1
     5c8: 9821         	ldr	r0, [sp, #0x84]
     5ca: 463b         	mov	r3, r7
     5cc: 47a8         	blx	r5
     5ce: 0600         	lsls	r0, r0, #0x18
     5d0: d100         	bne	0x5d4 <aot_func_internal#1+0x530> @ imm = #0x0
     5d2: e581         	b	0xd8 <aot_func_internal#1+0x34> @ imm = #-0x4fe
     5d4: 981f         	ldr	r0, [sp, #0x7c]
     5d6: 6802         	ldr	r2, [r0]
     5d8: 6821         	ldr	r1, [r4]
     5da: 9820         	ldr	r0, [sp, #0x80]
     5dc: 4790         	blx	r2
     5de: 980c         	ldr	r0, [sp, #0x30]
     5e0: 7800         	ldrb	r0, [r0]
     5e2: 2800         	cmp	r0, #0x0
     5e4: d000         	beq	0x5e8 <aot_func_internal#1+0x544> @ imm = #0x0
     5e6: e577         	b	0xd8 <aot_func_internal#1+0x34> @ imm = #-0x512
     5e8: 9b22         	ldr	r3, [sp, #0x88]
     5ea: 336c         	adds	r3, #0x6c
     5ec: 9e22         	ldr	r6, [sp, #0x88]
     5ee: 68b0         	ldr	r0, [r6, #0x8]
     5f0: 991d         	ldr	r1, [sp, #0x74]
     5f2: 180a         	adds	r2, r1, r0
     5f4: 9918         	ldr	r1, [sp, #0x60]
     5f6: 428a         	cmp	r2, r1
     5f8: 9919         	ldr	r1, [sp, #0x64]
     5fa: 9821         	ldr	r0, [sp, #0x84]
     5fc: 9c17         	ldr	r4, [sp, #0x5c]
     5fe: d800         	bhi	0x602 <aot_func_internal#1+0x55e> @ imm = #0x0
     600: e567         	b	0xd2 <aot_func_internal#1+0x2e> @ imm = #-0x532
     602: 9915         	ldr	r1, [sp, #0x54]
     604: 428a         	cmp	r2, r1
     606: 9916         	ldr	r1, [sp, #0x58]
     608: d900         	bls	0x60c <aot_func_internal#1+0x568> @ imm = #0x0
     60a: e562         	b	0xd2 <aot_func_internal#1+0x2e> @ imm = #-0x53c
     60c: 681f         	ldr	r7, [r3]
     60e: 6022         	str	r2, [r4]
     610: 4638         	mov	r0, r7
     612: b023         	add	sp, #0x8c
     614: bdf0         	pop	{r4, r5, r6, r7, pc}
     616: 4629         	mov	r1, r5
     618: e182         	b	0x920 <aot_func_internal#1+0x87c> @ imm = #0x304
     61a: 9909         	ldr	r1, [sp, #0x24]
     61c: e180         	b	0x920 <aot_func_internal#1+0x87c> @ imm = #0x300
     61e: 990a         	ldr	r1, [sp, #0x28]
     620: e17e         	b	0x920 <aot_func_internal#1+0x87c> @ imm = #0x2fc
     622: 990a         	ldr	r1, [sp, #0x28]
     624: 9821         	ldr	r0, [sp, #0x84]
     626: 461e         	mov	r6, r3
     628: e553         	b	0xd2 <aot_func_internal#1+0x2e> @ imm = #-0x55a
     62a: 9922         	ldr	r1, [sp, #0x88]
     62c: 1d08         	adds	r0, r1, #0x4
     62e: 9005         	str	r0, [sp, #0x14]
     630: 6d88         	ldr	r0, [r1, #0x58]
     632: 9a08         	ldr	r2, [sp, #0x20]
     634: 1810         	adds	r0, r2, r0
     636: 9004         	str	r0, [sp, #0x10]
     638: 6848         	ldr	r0, [r1, #0x4]
     63a: 901a         	str	r0, [sp, #0x68]
     63c: 9807         	ldr	r0, [sp, #0x1c]
     63e: 991a         	ldr	r1, [sp, #0x68]
     640: 4281         	cmp	r1, r0
     642: d051         	beq	0x6e8 <aot_func_internal#1+0x644> @ imm = #0xa2
     644: 9811         	ldr	r0, [sp, #0x44]
     646: 6802         	ldr	r2, [r0]
     648: 9812         	ldr	r0, [sp, #0x48]
     64a: 6800         	ldr	r0, [r0]
     64c: 4282         	cmp	r2, r0
     64e: d300         	blo	0x652 <aot_func_internal#1+0x5ae> @ imm = #0x0
     650: e16b         	b	0x92a <aot_func_internal#1+0x886> @ imm = #0x2d6
     652: 0090         	lsls	r0, r2, #0x2
     654: 9910         	ldr	r1, [sp, #0x40]
     656: 5808         	ldr	r0, [r1, r0]
     658: 1c41         	adds	r1, r0, #0x1
     65a: d100         	bne	0x65e <aot_func_internal#1+0x5ba> @ imm = #0x0
     65c: e167         	b	0x92e <aot_func_internal#1+0x88a> @ imm = #0x2ce
     65e: 0083         	lsls	r3, r0, #0x2
     660: 991c         	ldr	r1, [sp, #0x70]
     662: 58c9         	ldr	r1, [r1, r3]
     664: 2900         	cmp	r1, #0x0
     666: d000         	beq	0x66a <aot_func_internal#1+0x5c6> @ imm = #0x0
     668: e158         	b	0x91c <aot_func_internal#1+0x878> @ imm = #0x2b0
     66a: 9904         	ldr	r1, [sp, #0x10]
     66c: 9c1a         	ldr	r4, [sp, #0x68]
     66e: 1861         	adds	r1, r4, r1
     670: 9d22         	ldr	r5, [sp, #0x88]
     672: 6e2c         	ldr	r4, [r5, #0x60]
     674: 9413         	str	r4, [sp, #0x4c]
     676: 2803         	cmp	r0, #0x3
     678: d814         	bhi	0x6a4 <aot_func_internal#1+0x600> @ imm = #0x28
     67a: 9822         	ldr	r0, [sp, #0x88]
     67c: 6a85         	ldr	r5, [r0, #0x28]
     67e: 0e08         	lsrs	r0, r1, #0x18
     680: 9c0e         	ldr	r4, [sp, #0x38]
     682: 70e0         	strb	r0, [r4, #0x3]
     684: 0c08         	lsrs	r0, r1, #0x10
     686: 70a0         	strb	r0, [r4, #0x2]
     688: 0a08         	lsrs	r0, r1, #0x8
     68a: 7060         	strb	r0, [r4, #0x1]
     68c: 7021         	strb	r1, [r4]
     68e: 9400         	str	r4, [sp]
     690: 2700         	movs	r7, #0x0
     692: 2301         	movs	r3, #0x1
     694: 9820         	ldr	r0, [sp, #0x80]
     696: 4639         	mov	r1, r7
     698: 47a8         	blx	r5
     69a: 0600         	lsls	r0, r0, #0x18
     69c: d100         	bne	0x6a0 <aot_func_internal#1+0x5fc> @ imm = #0x0
     69e: e51b         	b	0xd8 <aot_func_internal#1+0x34> @ imm = #-0x5ca
     6a0: 6820         	ldr	r0, [r4]
     6a2: e008         	b	0x6b6 <aot_func_internal#1+0x612> @ imm = #0x10
     6a4: 981f         	ldr	r0, [sp, #0x7c]
     6a6: 58c2         	ldr	r2, [r0, r3]
     6a8: 9820         	ldr	r0, [sp, #0x80]
     6aa: 4790         	blx	r2
     6ac: 990c         	ldr	r1, [sp, #0x30]
     6ae: 7809         	ldrb	r1, [r1]
     6b0: 2900         	cmp	r1, #0x0
     6b2: d000         	beq	0x6b6 <aot_func_internal#1+0x612> @ imm = #0x0
     6b4: e779         	b	0x5aa <aot_func_internal#1+0x506> @ imm = #-0x10e
     6b6: 991d         	ldr	r1, [sp, #0x74]
     6b8: 9a13         	ldr	r2, [sp, #0x4c]
     6ba: 1889         	adds	r1, r1, r2
     6bc: 9a1a         	ldr	r2, [sp, #0x68]
     6be: 1889         	adds	r1, r1, r2
     6c0: 9a05         	ldr	r2, [sp, #0x14]
     6c2: 6812         	ldr	r2, [r2]
     6c4: 1851         	adds	r1, r2, r1
     6c6: d300         	blo	0x6ca <aot_func_internal#1+0x626> @ imm = #0x0
     6c8: e12d         	b	0x926 <aot_func_internal#1+0x882> @ imm = #0x25a
     6ca: 9a14         	ldr	r2, [sp, #0x50]
     6cc: 4291         	cmp	r1, r2
     6ce: d900         	bls	0x6d2 <aot_func_internal#1+0x62e> @ imm = #0x0
     6d0: e129         	b	0x926 <aot_func_internal#1+0x882> @ imm = #0x252
     6d2: 9a1b         	ldr	r2, [sp, #0x6c]
     6d4: 5450         	strb	r0, [r2, r1]
     6d6: 9822         	ldr	r0, [sp, #0x88]
     6d8: 6ec0         	ldr	r0, [r0, #0x6c]
     6da: 991a         	ldr	r1, [sp, #0x68]
     6dc: 1809         	adds	r1, r1, r0
     6de: 911a         	str	r1, [sp, #0x68]
     6e0: 9807         	ldr	r0, [sp, #0x1c]
     6e2: 991a         	ldr	r1, [sp, #0x68]
     6e4: 4281         	cmp	r1, r0
     6e6: d1ad         	bne	0x644 <aot_func_internal#1+0x5a0> @ imm = #-0xa6
     6e8: 9922         	ldr	r1, [sp, #0x88]
     6ea: 6e48         	ldr	r0, [r1, #0x64]
     6ec: 6e8c         	ldr	r4, [r1, #0x68]
     6ee: 684f         	ldr	r7, [r1, #0x4]
     6f0: 690d         	ldr	r5, [r1, #0x10]
     6f2: 2300         	movs	r3, #0x0
     6f4: 9600         	str	r6, [sp]
     6f6: 9301         	str	r3, [sp, #0x4]
     6f8: 990e         	ldr	r1, [sp, #0x38]
     6fa: 9102         	str	r1, [sp, #0x8]
     6fc: 991d         	ldr	r1, [sp, #0x74]
     6fe: 180a         	adds	r2, r1, r0
     700: 9821         	ldr	r0, [sp, #0x84]
     702: 4619         	mov	r1, r3
     704: 461e         	mov	r6, r3
     706: 47a8         	blx	r5
     708: 0600         	lsls	r0, r0, #0x18
     70a: d00b         	beq	0x724 <aot_func_internal#1+0x680> @ imm = #0x16
     70c: 981f         	ldr	r0, [sp, #0x7c]
     70e: 6885         	ldr	r5, [r0, #0x8]
     710: 980e         	ldr	r0, [sp, #0x38]
     712: 6801         	ldr	r1, [r0]
     714: 9820         	ldr	r0, [sp, #0x80]
     716: 463a         	mov	r2, r7
     718: 4623         	mov	r3, r4
     71a: 47a8         	blx	r5
     71c: 980c         	ldr	r0, [sp, #0x30]
     71e: 7800         	ldrb	r0, [r0]
     720: 2800         	cmp	r0, #0x0
     722: d003         	beq	0x72c <aot_func_internal#1+0x688> @ imm = #0x6
     724: 4637         	mov	r7, r6
     726: 4638         	mov	r0, r7
     728: b023         	add	sp, #0x8c
     72a: bdf0         	pop	{r4, r5, r6, r7, pc}
     72c: 9922         	ldr	r1, [sp, #0x88]
     72e: 6b88         	ldr	r0, [r1, #0x38]
     730: 9a0d         	ldr	r2, [sp, #0x34]
     732: 4002         	ands	r2, r0
     734: 920d         	str	r2, [sp, #0x34]
     736: 6cc8         	ldr	r0, [r1, #0x4c]
     738: 9a08         	ldr	r2, [sp, #0x20]
     73a: 1a10         	subs	r0, r2, r0
     73c: 9008         	str	r0, [sp, #0x20]
     73e: 6848         	ldr	r0, [r1, #0x4]
     740: 901a         	str	r0, [sp, #0x68]
     742: 980d         	ldr	r0, [sp, #0x34]
     744: 991a         	ldr	r1, [sp, #0x68]
     746: 4281         	cmp	r1, r0
     748: d050         	beq	0x7ec <aot_func_internal#1+0x748> @ imm = #0xa0
     74a: 9811         	ldr	r0, [sp, #0x44]
     74c: 6802         	ldr	r2, [r0]
     74e: 9812         	ldr	r0, [sp, #0x48]
     750: 6800         	ldr	r0, [r0]
     752: 4282         	cmp	r2, r0
     754: d300         	blo	0x758 <aot_func_internal#1+0x6b4> @ imm = #0x0
     756: e0e8         	b	0x92a <aot_func_internal#1+0x886> @ imm = #0x1d0
     758: 0090         	lsls	r0, r2, #0x2
     75a: 9910         	ldr	r1, [sp, #0x40]
     75c: 5808         	ldr	r0, [r1, r0]
     75e: 1c41         	adds	r1, r0, #0x1
     760: d100         	bne	0x764 <aot_func_internal#1+0x6c0> @ imm = #0x0
     762: e0e4         	b	0x92e <aot_func_internal#1+0x88a> @ imm = #0x1c8
     764: 0083         	lsls	r3, r0, #0x2
     766: 991c         	ldr	r1, [sp, #0x70]
     768: 58c9         	ldr	r1, [r1, r3]
     76a: 2900         	cmp	r1, #0x0
     76c: d000         	beq	0x770 <aot_func_internal#1+0x6cc> @ imm = #0x0
     76e: e0d5         	b	0x91c <aot_func_internal#1+0x878> @ imm = #0x1aa
     770: 9908         	ldr	r1, [sp, #0x20]
     772: 9c1a         	ldr	r4, [sp, #0x68]
     774: 1861         	adds	r1, r4, r1
     776: 9d22         	ldr	r5, [sp, #0x88]
     778: 6e6c         	ldr	r4, [r5, #0x64]
     77a: 9413         	str	r4, [sp, #0x4c]
     77c: 2803         	cmp	r0, #0x3
     77e: d814         	bhi	0x7aa <aot_func_internal#1+0x706> @ imm = #0x28
     780: 9822         	ldr	r0, [sp, #0x88]
     782: 6a85         	ldr	r5, [r0, #0x28]
     784: 0e08         	lsrs	r0, r1, #0x18
     786: 9c0e         	ldr	r4, [sp, #0x38]
     788: 70e0         	strb	r0, [r4, #0x3]
     78a: 0c08         	lsrs	r0, r1, #0x10
     78c: 70a0         	strb	r0, [r4, #0x2]
     78e: 0a08         	lsrs	r0, r1, #0x8
     790: 7060         	strb	r0, [r4, #0x1]
     792: 7021         	strb	r1, [r4]
     794: 9400         	str	r4, [sp]
     796: 2700         	movs	r7, #0x0
     798: 2301         	movs	r3, #0x1
     79a: 9820         	ldr	r0, [sp, #0x80]
     79c: 4639         	mov	r1, r7
     79e: 47a8         	blx	r5
     7a0: 0600         	lsls	r0, r0, #0x18
     7a2: d100         	bne	0x7a6 <aot_func_internal#1+0x702> @ imm = #0x0
     7a4: e498         	b	0xd8 <aot_func_internal#1+0x34> @ imm = #-0x6d0
     7a6: 6820         	ldr	r0, [r4]
     7a8: e007         	b	0x7ba <aot_func_internal#1+0x716> @ imm = #0xe
     7aa: 981f         	ldr	r0, [sp, #0x7c]
     7ac: 58c2         	ldr	r2, [r0, r3]
     7ae: 9820         	ldr	r0, [sp, #0x80]
     7b0: 4790         	blx	r2
     7b2: 990c         	ldr	r1, [sp, #0x30]
     7b4: 7809         	ldrb	r1, [r1]
     7b6: 2900         	cmp	r1, #0x0
     7b8: d1b4         	bne	0x724 <aot_func_internal#1+0x680> @ imm = #-0x98
     7ba: 991d         	ldr	r1, [sp, #0x74]
     7bc: 9a13         	ldr	r2, [sp, #0x4c]
     7be: 1889         	adds	r1, r1, r2
     7c0: 9a1a         	ldr	r2, [sp, #0x68]
     7c2: 1889         	adds	r1, r1, r2
     7c4: 9a05         	ldr	r2, [sp, #0x14]
     7c6: 6812         	ldr	r2, [r2]
     7c8: 1851         	adds	r1, r2, r1
     7ca: d300         	blo	0x7ce <aot_func_internal#1+0x72a> @ imm = #0x0
     7cc: e0ab         	b	0x926 <aot_func_internal#1+0x882> @ imm = #0x156
     7ce: 9a14         	ldr	r2, [sp, #0x50]
     7d0: 4291         	cmp	r1, r2
     7d2: d900         	bls	0x7d6 <aot_func_internal#1+0x732> @ imm = #0x0
     7d4: e0a7         	b	0x926 <aot_func_internal#1+0x882> @ imm = #0x14e
     7d6: 9a1b         	ldr	r2, [sp, #0x6c]
     7d8: 5450         	strb	r0, [r2, r1]
     7da: 9822         	ldr	r0, [sp, #0x88]
     7dc: 6ec0         	ldr	r0, [r0, #0x6c]
     7de: 991a         	ldr	r1, [sp, #0x68]
     7e0: 1809         	adds	r1, r1, r0
     7e2: 911a         	str	r1, [sp, #0x68]
     7e4: 980d         	ldr	r0, [sp, #0x34]
     7e6: 991a         	ldr	r1, [sp, #0x68]
     7e8: 4281         	cmp	r1, r0
     7ea: d1ae         	bne	0x74a <aot_func_internal#1+0x6a6> @ imm = #-0xa4
     7ec: 9822         	ldr	r0, [sp, #0x88]
     7ee: 6f00         	ldr	r0, [r0, #0x70]
     7f0: 991d         	ldr	r1, [sp, #0x74]
     7f2: 1840         	adds	r0, r0, r1
     7f4: d300         	blo	0x7f8 <aot_func_internal#1+0x754> @ imm = #0x0
     7f6: e096         	b	0x926 <aot_func_internal#1+0x882> @ imm = #0x12c
     7f8: 991e         	ldr	r1, [sp, #0x78]
     7fa: 4288         	cmp	r0, r1
     7fc: d900         	bls	0x800 <aot_func_internal#1+0x75c> @ imm = #0x0
     7fe: e092         	b	0x926 <aot_func_internal#1+0x882> @ imm = #0x124
     800: 9b22         	ldr	r3, [sp, #0x88]
     802: 6e19         	ldr	r1, [r3, #0x60]
     804: 9a1d         	ldr	r2, [sp, #0x74]
     806: 1851         	adds	r1, r2, r1
     808: 9a1b         	ldr	r2, [sp, #0x6c]
     80a: 5411         	strb	r1, [r2, r0]
     80c: 1810         	adds	r0, r2, r0
     80e: 0e0a         	lsrs	r2, r1, #0x18
     810: 70c2         	strb	r2, [r0, #0x3]
     812: 0c0a         	lsrs	r2, r1, #0x10
     814: 7082         	strb	r2, [r0, #0x2]
     816: 0a09         	lsrs	r1, r1, #0x8
     818: 7041         	strb	r1, [r0, #0x1]
     81a: 6f18         	ldr	r0, [r3, #0x70]
     81c: 901c         	str	r0, [sp, #0x70]
     81e: 6f5a         	ldr	r2, [r3, #0x74]
     820: 691d         	ldr	r5, [r3, #0x10]
     822: 2700         	movs	r7, #0x0
     824: 9700         	str	r7, [sp]
     826: 9701         	str	r7, [sp, #0x4]
     828: 9c0e         	ldr	r4, [sp, #0x38]
     82a: 9402         	str	r4, [sp, #0x8]
     82c: 2101         	movs	r1, #0x1
     82e: 9821         	ldr	r0, [sp, #0x84]
     830: 460e         	mov	r6, r1
     832: 463b         	mov	r3, r7
     834: 47a8         	blx	r5
     836: 0600         	lsls	r0, r0, #0x18
     838: d100         	bne	0x83c <aot_func_internal#1+0x798> @ imm = #0x0
     83a: e44d         	b	0xd8 <aot_func_internal#1+0x34> @ imm = #-0x766
     83c: 6820         	ldr	r0, [r4]
     83e: 901a         	str	r0, [sp, #0x68]
     840: 9822         	ldr	r0, [sp, #0x88]
     842: 6905         	ldr	r5, [r0, #0x10]
     844: 2700         	movs	r7, #0x0
     846: 9600         	str	r6, [sp]
     848: 9701         	str	r7, [sp, #0x4]
     84a: 9402         	str	r4, [sp, #0x8]
     84c: 981d         	ldr	r0, [sp, #0x74]
     84e: 991c         	ldr	r1, [sp, #0x70]
     850: 1842         	adds	r2, r0, r1
     852: 9821         	ldr	r0, [sp, #0x84]
     854: 4639         	mov	r1, r7
     856: 463b         	mov	r3, r7
     858: 47a8         	blx	r5
     85a: 0600         	lsls	r0, r0, #0x18
     85c: d100         	bne	0x860 <aot_func_internal#1+0x7bc> @ imm = #0x0
     85e: e43b         	b	0xd8 <aot_func_internal#1+0x34> @ imm = #-0x78a
     860: 981f         	ldr	r0, [sp, #0x7c]
     862: 6843         	ldr	r3, [r0, #0x4]
     864: 980e         	ldr	r0, [sp, #0x38]
     866: 6802         	ldr	r2, [r0]
     868: 9820         	ldr	r0, [sp, #0x80]
     86a: 991a         	ldr	r1, [sp, #0x68]
     86c: 4798         	blx	r3
     86e: 980c         	ldr	r0, [sp, #0x30]
     870: 7800         	ldrb	r0, [r0]
     872: 2800         	cmp	r0, #0x0
     874: 9805         	ldr	r0, [sp, #0x14]
     876: d000         	beq	0x87a <aot_func_internal#1+0x7d6> @ imm = #0x0
     878: e42e         	b	0xd8 <aot_func_internal#1+0x34> @ imm = #-0x7a4
     87a: 6800         	ldr	r0, [r0]
     87c: 991d         	ldr	r1, [sp, #0x74]
     87e: 1843         	adds	r3, r0, r1
     880: d251         	bhs	0x926 <aot_func_internal#1+0x882> @ imm = #0xa2
     882: 981e         	ldr	r0, [sp, #0x78]
     884: 4283         	cmp	r3, r0
     886: 990f         	ldr	r1, [sp, #0x3c]
     888: 9e22         	ldr	r6, [sp, #0x88]
     88a: 9821         	ldr	r0, [sp, #0x84]
     88c: d900         	bls	0x890 <aot_func_internal#1+0x7ec> @ imm = #0x0
     88e: e420         	b	0xd2 <aot_func_internal#1+0x2e> @ imm = #-0x7c0
     890: 6e71         	ldr	r1, [r6, #0x64]
     892: 9a1d         	ldr	r2, [sp, #0x74]
     894: 1851         	adds	r1, r2, r1
     896: 9a1b         	ldr	r2, [sp, #0x6c]
     898: 54d1         	strb	r1, [r2, r3]
     89a: 18d3         	adds	r3, r2, r3
     89c: 0e0a         	lsrs	r2, r1, #0x18
     89e: 70da         	strb	r2, [r3, #0x3]
     8a0: 0c0a         	lsrs	r2, r1, #0x10
     8a2: 709a         	strb	r2, [r3, #0x2]
     8a4: 0a09         	lsrs	r1, r1, #0x8
     8a6: 7059         	strb	r1, [r3, #0x1]
     8a8: 6935         	ldr	r5, [r6, #0x10]
     8aa: 6fb2         	ldr	r2, [r6, #0x78]
     8ac: 2700         	movs	r7, #0x0
     8ae: 9700         	str	r7, [sp]
     8b0: 9701         	str	r7, [sp, #0x4]
     8b2: 9c0e         	ldr	r4, [sp, #0x38]
     8b4: 9402         	str	r4, [sp, #0x8]
     8b6: 2101         	movs	r1, #0x1
     8b8: 460e         	mov	r6, r1
     8ba: 463b         	mov	r3, r7
     8bc: 47a8         	blx	r5
     8be: 0600         	lsls	r0, r0, #0x18
     8c0: d100         	bne	0x8c4 <aot_func_internal#1+0x820> @ imm = #0x0
     8c2: e409         	b	0xd8 <aot_func_internal#1+0x34> @ imm = #-0x7ee
     8c4: 6820         	ldr	r0, [r4]
     8c6: 901e         	str	r0, [sp, #0x78]
     8c8: 9822         	ldr	r0, [sp, #0x88]
     8ca: 6905         	ldr	r5, [r0, #0x10]
     8cc: 2700         	movs	r7, #0x0
     8ce: 9600         	str	r6, [sp]
     8d0: 9701         	str	r7, [sp, #0x4]
     8d2: 9402         	str	r4, [sp, #0x8]
     8d4: 9821         	ldr	r0, [sp, #0x84]
     8d6: 4639         	mov	r1, r7
     8d8: 9a1d         	ldr	r2, [sp, #0x74]
     8da: 463b         	mov	r3, r7
     8dc: 47a8         	blx	r5
     8de: 0600         	lsls	r0, r0, #0x18
     8e0: d101         	bne	0x8e6 <aot_func_internal#1+0x842> @ imm = #0x2
     8e2: f7ff fbf9    	bl	0xd8 <aot_func_internal#1+0x34> @ imm = #-0x80e
     8e6: 981f         	ldr	r0, [sp, #0x7c]
     8e8: 6843         	ldr	r3, [r0, #0x4]
     8ea: 980e         	ldr	r0, [sp, #0x38]
     8ec: 6802         	ldr	r2, [r0]
     8ee: 9820         	ldr	r0, [sp, #0x80]
     8f0: 991e         	ldr	r1, [sp, #0x78]
     8f2: 4798         	blx	r3
     8f4: 980c         	ldr	r0, [sp, #0x30]
     8f6: 7800         	ldrb	r0, [r0]
     8f8: 2800         	cmp	r0, #0x0
     8fa: d001         	beq	0x900 <aot_func_internal#1+0x85c> @ imm = #0x2
     8fc: f7ff fbec    	bl	0xd8 <aot_func_internal#1+0x34> @ imm = #-0x828
     900: 981f         	ldr	r0, [sp, #0x7c]
     902: 68c2         	ldr	r2, [r0, #0xc]
     904: 9822         	ldr	r0, [sp, #0x88]
     906: 6fc1         	ldr	r1, [r0, #0x7c]
     908: 9820         	ldr	r0, [sp, #0x80]
     90a: 4790         	blx	r2
     90c: 980c         	ldr	r0, [sp, #0x30]
     90e: 7800         	ldrb	r0, [r0]
     910: 2800         	cmp	r0, #0x0
     912: 9b05         	ldr	r3, [sp, #0x14]
     914: d001         	beq	0x91a <aot_func_internal#1+0x876> @ imm = #0x2
     916: f7ff fbdf    	bl	0xd8 <aot_func_internal#1+0x34> @ imm = #-0x842
     91a: e667         	b	0x5ec <aot_func_internal#1+0x548> @ imm = #-0x332
     91c: 9909         	ldr	r1, [sp, #0x24]
     91e: 9e22         	ldr	r6, [sp, #0x88]
     920: 9821         	ldr	r0, [sp, #0x84]
     922: f7ff fbd6    	bl	0xd2 <aot_func_internal#1+0x2e> @ imm = #-0x854
     926: 990f         	ldr	r1, [sp, #0x3c]
     928: e7f9         	b	0x91e <aot_func_internal#1+0x87a> @ imm = #-0xe
     92a: 990a         	ldr	r1, [sp, #0x28]
     92c: e7f7         	b	0x91e <aot_func_internal#1+0x87a> @ imm = #-0x12
     92e: 990b         	ldr	r1, [sp, #0x2c]
     930: e7f5         	b	0x91e <aot_func_internal#1+0x87a> @ imm = #-0x16

00000932 <aot_func#2>:
     932: b580         	push	{r7, lr}
     934: b082         	sub	sp, #0x8
     936: 2141         	movs	r1, #0x41
     938: 00c9         	lsls	r1, r1, #0x3
     93a: 6882         	ldr	r2, [r0, #0x8]
     93c: 5851         	ldr	r1, [r2, r1]
     93e: 6889         	ldr	r1, [r1, #0x8]
     940: ab01         	add	r3, sp, #0x4
     942: 1a59         	subs	r1, r3, r1
     944: d306         	blo	0x954 <aot_func#2+0x22> @ imm = #0xc
     946: 6903         	ldr	r3, [r0, #0x10]
     948: 4299         	cmp	r1, r3
     94a: d303         	blo	0x954 <aot_func#2+0x22> @ imm = #0x6
     94c: f000 f80a    	bl	0x964 <aot_func_internal#2> @ imm = #0x14
     950: b002         	add	sp, #0x8
     952: bd80         	pop	{r7, pc}
     954: 6a00         	ldr	r0, [r0, #0x20]
     956: 6803         	ldr	r3, [r0]
     958: 210b         	movs	r1, #0xb
     95a: 4610         	mov	r0, r2
     95c: 4798         	blx	r3
     95e: 2000         	movs	r0, #0x0
     960: b002         	add	sp, #0x8
     962: bd80         	pop	{r7, pc}

00000964 <aot_func_internal#2>:
     964: b510         	push	{r4, lr}
     966: 6884         	ldr	r4, [r0, #0x8]
     968: 6aa1         	ldr	r1, [r4, #0x28]
     96a: 6949         	ldr	r1, [r1, #0x14]
     96c: 4788         	blx	r1
     96e: 2168         	movs	r1, #0x68
     970: 5c61         	ldrb	r1, [r4, r1]
     972: 2900         	cmp	r1, #0x0
     974: d000         	beq	0x978 <aot_func_internal#2+0x14> @ imm = #0x0
     976: 2000         	movs	r0, #0x0
     978: bd10         	pop	{r4, pc}
